; Function Attrs: mustprogress uwtable
define void @_ZN13device_list_t4tickEv(ptr nocapture noundef nonnull readonly align 8 dereferenceable(88) %0) local_unnamed_addr #3 align 2 {
  %2 = getelementptr inbounds i8, ptr %0, i64 80
  %3 = load i64, ptr %2, align 8
  %.not = icmp eq i64 %3, 0
  br i1 %.not, label %._crit_edge, label %.lr.ph

.lr.ph:                                           ; preds = %1, %.lr.ph
  %.03 = phi i64 [ %10, %.lr.ph ], [ 0, %1 ]
  %4 = load ptr, ptr %0, align 8
  %5 = getelementptr inbounds ptr, ptr %4, i64 %.03
  %6 = load ptr, ptr %5, align 8
  %7 = load ptr, ptr %6, align 8
  %8 = getelementptr inbounds i8, ptr %7, i64 24
  %9 = load ptr, ptr %8, align 8
  tail call void %9(ptr noundef nonnull align 8 dereferenceable(56) %6)
  %10 = add nuw i64 %.03, 1
  %11 = load i64, ptr %2, align 8
  %12 = icmp ult i64 %10, %11
  br i1 %12, label %.lr.ph, label %._crit_edge, !llvm.loop !18

._crit_edge:                                      ; preds = %.lr.ph, %1
  ret void
}